target datalayout = "e-m:e-p270:32:32-p271:32:32-p272:64:64-i64:64-i128:128-f80:128-n8:16:32:64-S128"
target triple = "x86_64-pc-linux-gnu"

%"struct.std::_Vector_base" = type { %"struct.std::_Vector_base<unsigned int, std::allocator<unsigned int>>::_Vector_impl" }
%"struct.std::_Vector_base<unsigned int, std::allocator<unsigned int>>::_Vector_impl" = type { %"struct.std::_Vector_base<unsigned int, std::allocator<unsigned int>>::_Vector_impl_data" }
%"struct.std::_Vector_base<unsigned int, std::allocator<unsigned int>>::_Vector_impl_data" = type { ptr, ptr, ptr }
%"class.(anonymous namespace)::TGlslangToSpvTraverser" = type { %"class.glslang::TIntermTraverser", ptr, ptr, ptr, ptr, i32, ptr, %"class.spv::Builder", i8, i8, i8, %"class.std::set.226", ptr, i8, i32, i32, %"class.std::unordered_map.186", %"class.std::unordered_map.231", %"class.std::unordered_map.212", %"class.std::unordered_set.251", %"class.std::unordered_map.265", [6 x [3 x %"class.std::unordered_map.279"]], %"class.std::unordered_map.299", %"class.std::unordered_map.313", %"class.std::stack.327", %"class.std::unordered_map.334", %"class.std::map.348", %"class.std::unordered_map.212", i32, [4 x %"class.std::unordered_map.356"], %"class.std::unordered_map.370" }
%"class.glslang::TIntermTraverser" = type { ptr, i8, i8, i8, i8, i32, i32, %"class.glslang::TVector" }
%"class.glslang::TVector" = type { %"class.std::vector.103" }
%"class.std::vector.103" = type { %"struct.std::_Vector_base.104" }
%"struct.std::_Vector_base.104" = type { %"struct.std::_Vector_base<TIntermNode *, glslang::pool_allocator<TIntermNode *>>::_Vector_impl" }
%"struct.std::_Vector_base<TIntermNode *, glslang::pool_allocator<TIntermNode *>>::_Vector_impl" = type { %"class.glslang::pool_allocator", %"struct.std::_Vector_base<TIntermNode *, glslang::pool_allocator<TIntermNode *>>::_Vector_impl_data" }
%"class.glslang::pool_allocator" = type { ptr }
%"struct.std::_Vector_base<TIntermNode *, glslang::pool_allocator<TIntermNode *>>::_Vector_impl_data" = type { ptr, ptr, ptr }
%"class.spv::Builder" = type { ptr, %"class.std::unordered_map.105", i32, i32, i32, i32, i32, i32, i32, %"class.std::__cxx11::basic_string", i8, i32, i32, i32, i8, %"class.std::stack", i8, i8, i8, i8, i8, %"class.std::set", %"class.std::vector.125", %"class.std::vector.125", i32, i32, %"class.std::set.130", i32, %"class.spv::Module", ptr, i32, ptr, i8, i8, [6 x i8], %"struct.spv::Builder::AccessChain", %"class.std::vector.148", %"class.std::vector.148", %"class.std::vector.148", %"class.std::vector.148", %"class.std::vector.148", %"class.std::vector.148", %"class.std::vector.148", %"class.std::vector.148", %"class.std::vector.153", %"class.std::unordered_map.158", %"class.std::unordered_map.158", %"class.std::unordered_map.158", %"class.std::unordered_map.158", %"class.std::vector.143", %"class.std::stack.172", %"class.std::stack.179", %"class.std::unordered_map.186", %"class.std::map.200", %"class.std::map.207", %"class.std::unordered_map.212", ptr }
%"class.std::unordered_map.105" = type { %"class.std::_Hashtable.106" }
%"class.std::_Hashtable.106" = type { ptr, i64, %"struct.std::__detail::_Hash_node_base", i64, %"struct.std::__detail::_Prime_rehash_policy", ptr }
%"struct.std::__detail::_Hash_node_base" = type { ptr }
%"struct.std::__detail::_Prime_rehash_policy" = type { float, i64 }
%"class.std::__cxx11::basic_string" = type { %"struct.std::__cxx11::basic_string<char>::_Alloc_hider", i64, %union.anon }
%"struct.std::__cxx11::basic_string<char>::_Alloc_hider" = type { ptr }
%union.anon = type { i64, [8 x i8] }
%"class.std::stack" = type { %"class.std::deque" }
%"class.std::deque" = type { %"class.std::_Deque_base" }
%"class.std::_Deque_base" = type { %"struct.std::_Deque_base<unsigned int, std::allocator<unsigned int>>::_Deque_impl" }
%"struct.std::_Deque_base<unsigned int, std::allocator<unsigned int>>::_Deque_impl" = type { %"struct.std::_Deque_base<unsigned int, std::allocator<unsigned int>>::_Deque_impl_data" }
%"struct.std::_Deque_base<unsigned int, std::allocator<unsigned int>>::_Deque_impl_data" = type { ptr, i64, %"struct.std::_Deque_iterator", %"struct.std::_Deque_iterator" }
%"struct.std::_Deque_iterator" = type { ptr, ptr, ptr, ptr }
%"class.std::set" = type { %"class.std::_Rb_tree" }
%"class.std::_Rb_tree" = type { %"struct.std::_Rb_tree<std::__cxx11::basic_string<char>, std::__cxx11::basic_string<char>, std::_Identity<std::__cxx11::basic_string<char>>, std::less<std::__cxx11::basic_string<char>>>::_Rb_tree_impl" }
%"struct.std::_Rb_tree<std::__cxx11::basic_string<char>, std::__cxx11::basic_string<char>, std::_Identity<std::__cxx11::basic_string<char>>, std::less<std::__cxx11::basic_string<char>>>::_Rb_tree_impl" = type { %"struct.std::_Rb_tree_key_compare", %"struct.std::_Rb_tree_header" }
%"struct.std::_Rb_tree_key_compare" = type { %"struct.std::less" }
%"struct.std::less" = type { i8 }
%"struct.std::_Rb_tree_header" = type { %"struct.std::_Rb_tree_node_base", i64 }
%"struct.std::_Rb_tree_node_base" = type { i32, ptr, ptr, ptr }
%"class.std::vector.125" = type { %"struct.std::_Vector_base.126" }
%"struct.std::_Vector_base.126" = type { %"struct.std::_Vector_base<const char *, std::allocator<const char *>>::_Vector_impl" }
%"struct.std::_Vector_base<const char *, std::allocator<const char *>>::_Vector_impl" = type { %"struct.std::_Vector_base<const char *, std::allocator<const char *>>::_Vector_impl_data" }
%"struct.std::_Vector_base<const char *, std::allocator<const char *>>::_Vector_impl_data" = type { ptr, ptr, ptr }
%"class.std::set.130" = type { %"class.std::_Rb_tree.131" }
%"class.std::_Rb_tree.131" = type { %"struct.std::_Rb_tree<spv::Capability, spv::Capability, std::_Identity<spv::Capability>, std::less<spv::Capability>>::_Rb_tree_impl" }
%"struct.std::_Rb_tree<spv::Capability, spv::Capability, std::_Identity<spv::Capability>, std::less<spv::Capability>>::_Rb_tree_impl" = type { %"struct.std::_Rb_tree_key_compare.135", %"struct.std::_Rb_tree_header" }
%"struct.std::_Rb_tree_key_compare.135" = type { %"struct.std::less.136" }
%"struct.std::less.136" = type { i8 }
%"class.spv::Module" = type { ptr, %"class.std::vector.138", %"class.std::vector.143" }
%"class.std::vector.138" = type { %"struct.std::_Vector_base.139" }
%"struct.std::_Vector_base.139" = type { %"struct.std::_Vector_base<spv::Function *, std::allocator<spv::Function *>>::_Vector_impl" }
%"struct.std::_Vector_base<spv::Function *, std::allocator<spv::Function *>>::_Vector_impl" = type { %"struct.std::_Vector_base<spv::Function *, std::allocator<spv::Function *>>::_Vector_impl_data" }
%"struct.std::_Vector_base<spv::Function *, std::allocator<spv::Function *>>::_Vector_impl_data" = type { ptr, ptr, ptr }
%"struct.spv::Builder::AccessChain" = type <{ i32, [4 x i8], %"class.std::vector", i32, [4 x i8], %"class.std::vector", i32, i32, i8, [3 x i8], i32, %"struct.spv::Builder::AccessChain::CoherentFlags", [4 x i8] }>
%"class.std::vector" = type { %"struct.std::_Vector_base" }
%"struct.spv::Builder::AccessChain::CoherentFlags" = type { i16, [2 x i8] }
%"class.std::vector.148" = type { %"struct.std::_Vector_base.149" }
%"struct.std::_Vector_base.149" = type { %"struct.std::_Vector_base<std::unique_ptr<spv::Instruction>, std::allocator<std::unique_ptr<spv::Instruction>>>::_Vector_impl" }
%"struct.std::_Vector_base<std::unique_ptr<spv::Instruction>, std::allocator<std::unique_ptr<spv::Instruction>>>::_Vector_impl" = type { %"struct.std::_Vector_base<std::unique_ptr<spv::Instruction>, std::allocator<std::unique_ptr<spv::Instruction>>>::_Vector_impl_data" }
%"struct.std::_Vector_base<std::unique_ptr<spv::Instruction>, std::allocator<std::unique_ptr<spv::Instruction>>>::_Vector_impl_data" = type { ptr, ptr, ptr }
%"class.std::vector.153" = type { %"struct.std::_Vector_base.154" }
%"struct.std::_Vector_base.154" = type { %"struct.std::_Vector_base<std::unique_ptr<spv::Function>, std::allocator<std::unique_ptr<spv::Function>>>::_Vector_impl" }
%"struct.std::_Vector_base<std::unique_ptr<spv::Function>, std::allocator<std::unique_ptr<spv::Function>>>::_Vector_impl" = type { %"struct.std::_Vector_base<std::unique_ptr<spv::Function>, std::allocator<std::unique_ptr<spv::Function>>>::_Vector_impl_data" }
%"struct.std::_Vector_base<std::unique_ptr<spv::Function>, std::allocator<std::unique_ptr<spv::Function>>>::_Vector_impl_data" = type { ptr, ptr, ptr }
%"class.std::unordered_map.158" = type { %"class.std::_Hashtable.159" }
%"class.std::_Hashtable.159" = type { ptr, i64, %"struct.std::__detail::_Hash_node_base", i64, %"struct.std::__detail::_Prime_rehash_policy", ptr }
%"class.std::vector.143" = type { %"struct.std::_Vector_base.144" }
%"struct.std::_Vector_base.144" = type { %"struct.std::_Vector_base<spv::Instruction *, std::allocator<spv::Instruction *>>::_Vector_impl" }
%"struct.std::_Vector_base<spv::Instruction *, std::allocator<spv::Instruction *>>::_Vector_impl" = type { %"struct.std::_Vector_base<spv::Instruction *, std::allocator<spv::Instruction *>>::_Vector_impl_data" }
%"struct.std::_Vector_base<spv::Instruction *, std::allocator<spv::Instruction *>>::_Vector_impl_data" = type { ptr, ptr, ptr }
%"class.std::stack.172" = type { %"class.std::deque.173" }
%"class.std::deque.173" = type { %"class.std::_Deque_base.174" }
%"class.std::_Deque_base.174" = type { %"struct.std::_Deque_base<spv::Block *, std::allocator<spv::Block *>>::_Deque_impl" }
%"struct.std::_Deque_base<spv::Block *, std::allocator<spv::Block *>>::_Deque_impl" = type { %"struct.std::_Deque_base<spv::Block *, std::allocator<spv::Block *>>::_Deque_impl_data" }
%"struct.std::_Deque_base<spv::Block *, std::allocator<spv::Block *>>::_Deque_impl_data" = type { ptr, i64, %"struct.std::_Deque_iterator.178", %"struct.std::_Deque_iterator.178" }
%"struct.std::_Deque_iterator.178" = type { ptr, ptr, ptr, ptr }
%"class.std::stack.179" = type { %"class.std::deque.180" }
%"class.std::deque.180" = type { %"class.std::_Deque_base.181" }
%"class.std::_Deque_base.181" = type { %"struct.std::_Deque_base<spv::Builder::LoopBlocks, std::allocator<spv::Builder::LoopBlocks>>::_Deque_impl" }
%"struct.std::_Deque_base<spv::Builder::LoopBlocks, std::allocator<spv::Builder::LoopBlocks>>::_Deque_impl" = type { %"struct.std::_Deque_base<spv::Builder::LoopBlocks, std::allocator<spv::Builder::LoopBlocks>>::_Deque_impl_data" }
%"struct.std::_Deque_base<spv::Builder::LoopBlocks, std::allocator<spv::Builder::LoopBlocks>>::_Deque_impl_data" = type { ptr, i64, %"struct.std::_Deque_iterator.185", %"struct.std::_Deque_iterator.185" }
%"struct.std::_Deque_iterator.185" = type { ptr, ptr, ptr, ptr }
%"class.std::map.200" = type { %"class.std::_Rb_tree.201" }
%"class.std::_Rb_tree.201" = type { %"struct.std::_Rb_tree<unsigned int, std::pair<const unsigned int, const std::__cxx11::basic_string<char> *>, std::_Select1st<std::pair<const unsigned int, const std::__cxx11::basic_string<char> *>>, std::less<unsigned int>>::_Rb_tree_impl" }
%"struct.std::_Rb_tree<unsigned int, std::pair<const unsigned int, const std::__cxx11::basic_string<char> *>, std::_Select1st<std::pair<const unsigned int, const std::__cxx11::basic_string<char> *>>, std::less<unsigned int>>::_Rb_tree_impl" = type { %"struct.std::_Rb_tree_key_compare.205", %"struct.std::_Rb_tree_header" }
%"struct.std::_Rb_tree_key_compare.205" = type { %"struct.std::less.206" }
%"struct.std::less.206" = type { i8 }
%"class.std::map.207" = type { %"class.std::_Rb_tree.208" }
%"class.std::_Rb_tree.208" = type { %"struct.std::_Rb_tree<unsigned int, std::pair<const unsigned int, unsigned int>, std::_Select1st<std::pair<const unsigned int, unsigned int>>, std::less<unsigned int>>::_Rb_tree_impl" }
%"struct.std::_Rb_tree<unsigned int, std::pair<const unsigned int, unsigned int>, std::_Select1st<std::pair<const unsigned int, unsigned int>>, std::less<unsigned int>>::_Rb_tree_impl" = type { %"struct.std::_Rb_tree_key_compare.205", %"struct.std::_Rb_tree_header" }
%"class.std::set.226" = type { %"class.std::_Rb_tree.227" }
%"class.std::_Rb_tree.227" = type { %"struct.std::_Rb_tree<unsigned int, unsigned int, std::_Identity<unsigned int>, std::less<unsigned int>>::_Rb_tree_impl" }
%"struct.std::_Rb_tree<unsigned int, unsigned int, std::_Identity<unsigned int>, std::less<unsigned int>>::_Rb_tree_impl" = type { %"struct.std::_Rb_tree_key_compare.205", %"struct.std::_Rb_tree_header" }
%"class.std::unordered_map.186" = type { %"class.std::_Hashtable.187" }
%"class.std::_Hashtable.187" = type { ptr, i64, %"struct.std::__detail::_Hash_node_base", i64, %"struct.std::__detail::_Prime_rehash_policy", ptr }
%"class.std::unordered_map.231" = type { %"class.std::_Hashtable.232" }
%"class.std::_Hashtable.232" = type { ptr, i64, %"struct.std::__detail::_Hash_node_base", i64, %"struct.std::__detail::_Prime_rehash_policy", ptr }
%"class.std::unordered_set.251" = type { %"class.std::_Hashtable.252" }
%"class.std::_Hashtable.252" = type { ptr, i64, %"struct.std::__detail::_Hash_node_base", i64, %"struct.std::__detail::_Prime_rehash_policy", ptr }
%"class.std::unordered_map.265" = type { %"class.std::_Hashtable.266" }
%"class.std::_Hashtable.266" = type { ptr, i64, %"struct.std::__detail::_Hash_node_base", i64, %"struct.std::__detail::_Prime_rehash_policy", ptr }
%"class.std::unordered_map.279" = type { %"class.std::_Hashtable.280" }
%"class.std::_Hashtable.280" = type { ptr, i64, %"struct.std::__detail::_Hash_node_base", i64, %"struct.std::__detail::_Prime_rehash_policy", ptr }
%"class.std::unordered_map.299" = type { %"class.std::_Hashtable.300" }
%"class.std::_Hashtable.300" = type { ptr, i64, %"struct.std::__detail::_Hash_node_base", i64, %"struct.std::__detail::_Prime_rehash_policy", ptr }
%"class.std::unordered_map.313" = type { %"class.std::_Hashtable.314" }
%"class.std::_Hashtable.314" = type { ptr, i64, %"struct.std::__detail::_Hash_node_base", i64, %"struct.std::__detail::_Prime_rehash_policy", ptr }
%"class.std::stack.327" = type { %"class.std::deque.328" }
%"class.std::deque.328" = type { %"class.std::_Deque_base.329" }
%"class.std::_Deque_base.329" = type { %"struct.std::_Deque_base<bool, std::allocator<bool>>::_Deque_impl" }
%"struct.std::_Deque_base<bool, std::allocator<bool>>::_Deque_impl" = type { %"struct.std::_Deque_base<bool, std::allocator<bool>>::_Deque_impl_data" }
%"struct.std::_Deque_base<bool, std::allocator<bool>>::_Deque_impl_data" = type { ptr, i64, %"struct.std::_Deque_iterator.333", %"struct.std::_Deque_iterator.333" }
%"struct.std::_Deque_iterator.333" = type { ptr, ptr, ptr, ptr }
%"class.std::unordered_map.334" = type { %"class.std::_Hashtable.335" }
%"class.std::_Hashtable.335" = type { ptr, i64, %"struct.std::__detail::_Hash_node_base", i64, %"struct.std::__detail::_Prime_rehash_policy", ptr }
%"class.std::map.348" = type { %"class.std::_Rb_tree.349" }
%"class.std::_Rb_tree.349" = type { %"struct.std::_Rb_tree<const glslang::TType *, std::pair<const glslang::TType *const, unsigned int>, std::_Select1st<std::pair<const glslang::TType *const, unsigned int>>, std::less<const glslang::TType *>>::_Rb_tree_impl" }
%"struct.std::_Rb_tree<const glslang::TType *, std::pair<const glslang::TType *const, unsigned int>, std::_Select1st<std::pair<const glslang::TType *const, unsigned int>>, std::less<const glslang::TType *>>::_Rb_tree_impl" = type { %"struct.std::_Rb_tree_key_compare.353", %"struct.std::_Rb_tree_header" }
%"struct.std::_Rb_tree_key_compare.353" = type { %"struct.std::less.354" }
%"struct.std::less.354" = type { i8 }
%"class.std::unordered_map.212" = type { %"class.std::_Hashtable.213" }
%"class.std::_Hashtable.213" = type { ptr, i64, %"struct.std::__detail::_Hash_node_base", i64, %"struct.std::__detail::_Prime_rehash_policy", ptr }
%"class.std::unordered_map.356" = type { %"class.std::_Hashtable.357" }
%"class.std::_Hashtable.357" = type { ptr, i64, %"struct.std::__detail::_Hash_node_base", i64, %"struct.std::__detail::_Prime_rehash_policy", ptr }
%"class.std::unordered_map.370" = type { %"class.std::_Hashtable.371" }
%"class.std::_Hashtable.371" = type { ptr, i64, %"struct.std::__detail::_Hash_node_base", i64, %"struct.std::__detail::_Prime_rehash_policy", ptr }
%"class.glslang::TQualifier" = type <{ ptr, i64, i8, [3 x i8], i32, i32, i64, i64, i8, i8, i8, i8, i8, [3 x i8], i32, i8, i8, i8, i8, i32, ptr, i8, i8, [6 x i8] }>
%"struct.glslang::TSourceLoc" = type { ptr, i32, i32, i32 }
%"class.glslang::TIntermConstantUnion" = type <{ %"class.glslang::TIntermTyped", %"class.glslang::TConstUnionArray", i8, [7 x i8] }>
%"class.glslang::TIntermTyped" = type { %class.TIntermNode, %"class.glslang::TType" }
%class.TIntermNode = type { ptr, %"struct.glslang::TSourceLoc" }
%"class.glslang::TType" = type { ptr, i32, [4 x i8], %"class.glslang::TQualifier", ptr, %union.anon.418, ptr, ptr, %"struct.glslang::TSampler", ptr, ptr }
%union.anon.418 = type { ptr }
%"struct.glslang::TSampler" = type { i32 }
%"class.glslang::TConstUnionArray" = type { ptr, ptr }

; Function Attrs: mustprogress nounwind uwtable
define linkonce_odr void @_ZN3spv7Builder20setAccessChainRValueEj(ptr noundef nonnull align 8 dereferenceable(1416) %0, i32 noundef %1) #4 comdat align 2 {
  %3 = alloca ptr, align 8
  %4 = alloca i32, align 4
  store ptr %0, ptr %3, align 8
  store i32 %1, ptr %4, align 4
  %5 = load ptr, ptr %3, align 8
  %6 = getelementptr inbounds %"class.spv::Builder", ptr %5, i32 0, i32 35
  %7 = getelementptr inbounds %"struct.spv::Builder::AccessChain", ptr %6, i32 0, i32 8
  store i8 1, ptr %7, align 8
  %8 = load i32, ptr %4, align 4
  %9 = getelementptr inbounds %"class.spv::Builder", ptr %5, i32 0, i32 35
  %10 = getelementptr inbounds %"struct.spv::Builder::AccessChain", ptr %9, i32 0, i32 0
  store i32 %8, ptr %10, align 8
  ret void
}

; Function Attrs: mustprogress nounwind uwtable
define linkonce_odr noundef nonnull align 8 dereferenceable(16) ptr @_ZNK7glslang20TIntermConstantUnion13getConstArrayEv(ptr noundef nonnull align 8 dereferenceable(201) %0) #4 comdat align 2 {
  %2 = alloca ptr, align 8
  store ptr %0, ptr %2, align 8
  %3 = load ptr, ptr %2, align 8
  %4 = getelementptr inbounds %"class.glslang::TIntermConstantUnion", ptr %3, i32 0, i32 1
  ret ptr %4
}

; Function Attrs: mustprogress nounwind uwtable
define linkonce_odr noundef zeroext i1 @_ZNK7glslang10TQualifier14isSpirvLiteralEv(ptr noundef nonnull align 8 dereferenceable(80) %0) #4 comdat align 2 {
  %2 = alloca ptr, align 8
  store ptr %0, ptr %2, align 8
  %3 = load ptr, ptr %2, align 8
  %4 = getelementptr inbounds %"class.glslang::TQualifier", ptr %3, i32 0, i32 1
  %5 = load i64, ptr %4, align 8
  %6 = lshr i64 %5, 59
  %7 = and i64 %6, 1
  %8 = trunc i64 %7 to i1
  ret i1 %8
}

; Function Attrs: mustprogress nounwind uwtable
define internal void @_ZN12_GLOBAL__N_122TGlslangToSpvTraverser18visitConstantUnionEPN7glslang20TIntermConstantUnionE(ptr noundef nonnull align 8 dereferenceable(3528) %0, ptr noundef %1) unnamed_addr #4 align 2 {
  %3 = alloca ptr, align 8
  %4 = alloca ptr, align 8
  %5 = alloca i32, align 4
  %6 = alloca i32, align 4
  store ptr %0, ptr %3, align 8
  store ptr %1, ptr %4, align 8
  %7 = load ptr, ptr %3, align 8
  %8 = load ptr, ptr %4, align 8
  %9 = load ptr, ptr %8, align 8
  %10 = getelementptr inbounds ptr, ptr %9, i64 33
  %11 = load ptr, ptr %10, align 8
  %12 = call noundef nonnull align 8 dereferenceable(80) ptr %11(ptr noundef nonnull align 8 dereferenceable(184) %8)
  %13 = call noundef zeroext i1 @_ZNK7glslang10TQualifier14isSpirvLiteralEv(ptr noundef nonnull align 8 dereferenceable(80) %12)
  br i1 %13, label %14, label %15

14:                                               ; preds = %2
  br label %27

15:                                               ; preds = %2
  store i32 0, ptr %5, align 4
  %16 = load ptr, ptr %4, align 8
  %17 = load ptr, ptr %16, align 8
  %18 = getelementptr inbounds ptr, ptr %17, i64 30
  %19 = load ptr, ptr %18, align 8
  %20 = call noundef nonnull align 8 dereferenceable(152) ptr %19(ptr noundef nonnull align 8 dereferenceable(184) %16)
  %21 = load ptr, ptr %4, align 8
  %22 = call noundef nonnull align 8 dereferenceable(16) ptr @_ZNK7glslang20TIntermConstantUnion13getConstArrayEv(ptr noundef nonnull align 8 dereferenceable(201) %21)
  %23 = call noundef i32 @_ZN12_GLOBAL__N_122TGlslangToSpvTraverser36createSpvConstantFromConstUnionArrayERKN7glslang5TTypeERKNS1_16TConstUnionArrayERib(ptr noundef nonnull align 8 dereferenceable(3528) %7, ptr noundef nonnull align 8 dereferenceable(152) %20, ptr noundef nonnull align 8 dereferenceable(16) %22, ptr noundef nonnull align 4 dereferenceable(4) %5, i1 noundef zeroext false)
  store i32 %23, ptr %6, align 4
  %24 = getelementptr inbounds %"class.(anonymous namespace)::TGlslangToSpvTraverser", ptr %7, i32 0, i32 7
  call void @_ZN3spv7Builder16clearAccessChainEv(ptr noundef nonnull align 8 dereferenceable(1416) %24)
  %25 = getelementptr inbounds %"class.(anonymous namespace)::TGlslangToSpvTraverser", ptr %7, i32 0, i32 7
  %26 = load i32, ptr %6, align 4
  call void @_ZN3spv7Builder20setAccessChainRValueEj(ptr noundef nonnull align 8 dereferenceable(1416) %25, i32 noundef %26)
  br label %27

27:                                               ; preds = %15, %14
  ret void
}