; Function Attrs: mustprogress nounwind uwtable
define internal void @_ZN12_GLOBAL__N_122TGlslangToSpvTraverser18visitConstantUnionEPN7glslang20TIntermConstantUnionE(ptr noundef nonnull align 8 dereferenceable(3528) %0, ptr noundef %1) unnamed_addr #3 align 2 {
  %3 = alloca i32, align 4
  %4 = load ptr, ptr %1, align 8
  %5 = getelementptr inbounds nuw i8, ptr %4, i64 264
  %6 = load ptr, ptr %5, align 8
  %7 = tail call noundef nonnull align 8 dereferenceable(80) ptr %6(ptr noundef nonnull align 8 dereferenceable(184) %1) #20
  %8 = getelementptr inbounds nuw i8, ptr %7, i64 8
  %9 = load i64, ptr %8, align 8
  %10 = and i64 %9, 576460752303423488
  %.not = icmp eq i64 %10, 0
  br i1 %.not, label %11, label %21

11:                                               ; preds = %2
  store i32 0, ptr %3, align 4
  %12 = load ptr, ptr %1, align 8
  %13 = getelementptr inbounds nuw i8, ptr %12, i64 240
  %14 = load ptr, ptr %13, align 8
  %15 = tail call noundef nonnull align 8 dereferenceable(152) ptr %14(ptr noundef nonnull align 8 dereferenceable(184) %1) #20
  %16 = getelementptr inbounds nuw i8, ptr %1, i64 184
  %17 = call fastcc noundef i32 @_ZN12_GLOBAL__N_122TGlslangToSpvTraverser36createSpvConstantFromConstUnionArrayERKN7glslang5TTypeERKNS1_16TConstUnionArrayERib(ptr noundef nonnull align 8 dereferenceable(3528) %0, ptr noundef nonnull align 8 dereferenceable(152) %15, ptr noundef nonnull align 8 dereferenceable(16) %16, ptr noundef nonnull align 4 dereferenceable(4) %3, i1 noundef zeroext false)
  %18 = getelementptr inbounds nuw i8, ptr %0, i64 104
  call void @_ZN3spv7Builder16clearAccessChainEv(ptr noundef nonnull align 8 dereferenceable(1416) %18) #20
  %19 = getelementptr inbounds nuw i8, ptr %0, i64 592
  %20 = getelementptr inbounds nuw i8, ptr %0, i64 664
  store i8 1, ptr %20, align 8
  store i32 %17, ptr %19, align 8
  br label %21

21:                                               ; preds = %2, %11
  ret void
}